target datalayout = "e-m:e-p270:32:32-p271:32:32-p272:64:64-i64:64-i128:128-f80:128-n8:16:32:64-S128"
target triple = "x86_64-pc-linux-gnu"

%struct.AVFilterContext = type { ptr, ptr, ptr, ptr, ptr, i32, ptr, ptr, i32, ptr, ptr, i32, i32, ptr, ptr, ptr, ptr, i32, ptr, i32, i32 }
%struct.DrawBoxContext = type { ptr, i32, i32, i32, i32, i32, ptr, [4 x i8], [4 x i8], [4 x i8], i32, i32, i32, ptr, ptr, ptr, ptr, ptr, ptr, i32, i32, i32, i32, ptr }

; Function Attrs: nounwind uwtable
define internal i32 @process_command(ptr noundef %0, ptr noundef %1, ptr noundef %2, ptr noundef %3, i32 noundef %4, i32 noundef %5) #1 {
  %7 = alloca i32, align 4
  %8 = alloca ptr, align 8
  %9 = alloca ptr, align 8
  %10 = alloca ptr, align 8
  %11 = alloca ptr, align 8
  %12 = alloca i32, align 4
  %13 = alloca i32, align 4
  %14 = alloca ptr, align 8
  %15 = alloca ptr, align 8
  %16 = alloca i32, align 4
  %17 = alloca i32, align 4
  %18 = alloca i32, align 4
  %19 = alloca i32, align 4
  %20 = alloca i32, align 4
  %21 = alloca i32, align 4
  %22 = alloca i32, align 4
  %23 = alloca i32, align 4
  store ptr %0, ptr %8, align 8, !tbaa !4
  store ptr %1, ptr %9, align 8, !tbaa !30
  store ptr %2, ptr %10, align 8, !tbaa !30
  store ptr %3, ptr %11, align 8, !tbaa !30
  store i32 %4, ptr %12, align 4, !tbaa !31
  store i32 %5, ptr %13, align 4, !tbaa !31
  call void @llvm.lifetime.start.p0(i64 8, ptr %14) #10
  %24 = load ptr, ptr %8, align 8, !tbaa !4
  %25 = getelementptr inbounds nuw %struct.AVFilterContext, ptr %24, i32 0, i32 4
  %26 = load ptr, ptr %25, align 8, !tbaa !32
  %27 = getelementptr inbounds ptr, ptr %26, i64 0
  %28 = load ptr, ptr %27, align 8, !tbaa !33
  store ptr %28, ptr %14, align 8, !tbaa !33
  call void @llvm.lifetime.start.p0(i64 8, ptr %15) #10
  %29 = load ptr, ptr %8, align 8, !tbaa !4
  %30 = getelementptr inbounds nuw %struct.AVFilterContext, ptr %29, i32 0, i32 9
  %31 = load ptr, ptr %30, align 8, !tbaa !9
  store ptr %31, ptr %15, align 8, !tbaa !22
  call void @llvm.lifetime.start.p0(i64 4, ptr %16) #10
  %32 = load ptr, ptr %15, align 8, !tbaa !22
  %33 = getelementptr inbounds nuw %struct.DrawBoxContext, ptr %32, i32 0, i32 1
  %34 = load i32, ptr %33, align 8, !tbaa !35
  store i32 %34, ptr %16, align 4, !tbaa !31
  call void @llvm.lifetime.start.p0(i64 4, ptr %17) #10
  %35 = load ptr, ptr %15, align 8, !tbaa !22
  %36 = getelementptr inbounds nuw %struct.DrawBoxContext, ptr %35, i32 0, i32 2
  %37 = load i32, ptr %36, align 4, !tbaa !36
  store i32 %37, ptr %17, align 4, !tbaa !31
  call void @llvm.lifetime.start.p0(i64 4, ptr %18) #10
  %38 = load ptr, ptr %15, align 8, !tbaa !22
  %39 = getelementptr inbounds nuw %struct.DrawBoxContext, ptr %38, i32 0, i32 3
  %40 = load i32, ptr %39, align 8, !tbaa !37
  store i32 %40, ptr %18, align 4, !tbaa !31
  call void @llvm.lifetime.start.p0(i64 4, ptr %19) #10
  %41 = load ptr, ptr %15, align 8, !tbaa !22
  %42 = getelementptr inbounds nuw %struct.DrawBoxContext, ptr %41, i32 0, i32 4
  %43 = load i32, ptr %42, align 4, !tbaa !38
  store i32 %43, ptr %19, align 4, !tbaa !31
  call void @llvm.lifetime.start.p0(i64 4, ptr %20) #10
  %44 = load ptr, ptr %15, align 8, !tbaa !22
  %45 = getelementptr inbounds nuw %struct.DrawBoxContext, ptr %44, i32 0, i32 5
  %46 = load i32, ptr %45, align 8, !tbaa !39
  store i32 %46, ptr %20, align 4, !tbaa !31
  call void @llvm.lifetime.start.p0(i64 4, ptr %21) #10
  %47 = load ptr, ptr %15, align 8, !tbaa !22
  %48 = getelementptr inbounds nuw %struct.DrawBoxContext, ptr %47, i32 0, i32 20
  %49 = load i32, ptr %48, align 4, !tbaa !40
  store i32 %49, ptr %21, align 4, !tbaa !31
  call void @llvm.lifetime.start.p0(i64 4, ptr %22) #10
  %50 = load ptr, ptr %8, align 8, !tbaa !4
  %51 = load ptr, ptr %9, align 8, !tbaa !30
  %52 = load ptr, ptr %10, align 8, !tbaa !30
  %53 = load ptr, ptr %11, align 8, !tbaa !30
  %54 = load i32, ptr %12, align 4, !tbaa !31
  %55 = load i32, ptr %13, align 4, !tbaa !31
  %56 = call i32 @ff_filter_process_command(ptr noundef %50, ptr noundef %51, ptr noundef %52, ptr noundef %53, i32 noundef %54, i32 noundef %55)
  store i32 %56, ptr %22, align 4, !tbaa !31
  %57 = load i32, ptr %22, align 4, !tbaa !31
  %58 = icmp slt i32 %57, 0
  br i1 %58, label %59, label %61

59:                                               ; preds = %6
  %60 = load i32, ptr %22, align 4, !tbaa !31
  store i32 %60, ptr %7, align 4
  store i32 1, ptr %23, align 4
  br label %94

61:                                               ; preds = %6
  %62 = load ptr, ptr %8, align 8, !tbaa !4
  %63 = call i32 @init(ptr noundef %62) #12
  store i32 %63, ptr %22, align 4, !tbaa !31
  %64 = load i32, ptr %22, align 4, !tbaa !31
  %65 = icmp slt i32 %64, 0
  br i1 %65, label %66, label %67

66:                                               ; preds = %61
  br label %70

67:                                               ; preds = %61
  %68 = load ptr, ptr %14, align 8, !tbaa !33
  %69 = call i32 @config_input(ptr noundef %68)
  store i32 %69, ptr %22, align 4, !tbaa !31
  br label %70

70:                                               ; preds = %67, %66
  %71 = load i32, ptr %22, align 4, !tbaa !31
  %72 = icmp slt i32 %71, 0
  br i1 %72, label %73, label %92

73:                                               ; preds = %70
  %74 = load i32, ptr %16, align 4, !tbaa !31
  %75 = load ptr, ptr %15, align 8, !tbaa !22
  %76 = getelementptr inbounds nuw %struct.DrawBoxContext, ptr %75, i32 0, i32 1
  store i32 %74, ptr %76, align 8, !tbaa !35
  %77 = load i32, ptr %17, align 4, !tbaa !31
  %78 = load ptr, ptr %15, align 8, !tbaa !22
  %79 = getelementptr inbounds nuw %struct.DrawBoxContext, ptr %78, i32 0, i32 2
  store i32 %77, ptr %79, align 4, !tbaa !36
  %80 = load i32, ptr %18, align 4, !tbaa !31
  %81 = load ptr, ptr %15, align 8, !tbaa !22
  %82 = getelementptr inbounds nuw %struct.DrawBoxContext, ptr %81, i32 0, i32 3
  store i32 %80, ptr %82, align 8, !tbaa !37
  %83 = load i32, ptr %19, align 4, !tbaa !31
  %84 = load ptr, ptr %15, align 8, !tbaa !22
  %85 = getelementptr inbounds nuw %struct.DrawBoxContext, ptr %84, i32 0, i32 4
  store i32 %83, ptr %85, align 4, !tbaa !38
  %86 = load i32, ptr %20, align 4, !tbaa !31
  %87 = load ptr, ptr %15, align 8, !tbaa !22
  %88 = getelementptr inbounds nuw %struct.DrawBoxContext, ptr %87, i32 0, i32 5
  store i32 %86, ptr %88, align 8, !tbaa !39
  %89 = load i32, ptr %21, align 4, !tbaa !31
  %90 = load ptr, ptr %15, align 8, !tbaa !22
  %91 = getelementptr inbounds nuw %struct.DrawBoxContext, ptr %90, i32 0, i32 20
  store i32 %89, ptr %91, align 4, !tbaa !40
  br label %92

92:                                               ; preds = %73, %70
  %93 = load i32, ptr %22, align 4, !tbaa !31
  store i32 %93, ptr %7, align 4
  store i32 1, ptr %23, align 4
  br label %94

94:                                               ; preds = %92, %59
  call void @llvm.lifetime.end.p0(i64 4, ptr %22) #10
  call void @llvm.lifetime.end.p0(i64 4, ptr %21) #10
  call void @llvm.lifetime.end.p0(i64 4, ptr %20) #10
  call void @llvm.lifetime.end.p0(i64 4, ptr %19) #10
  call void @llvm.lifetime.end.p0(i64 4, ptr %18) #10
  call void @llvm.lifetime.end.p0(i64 4, ptr %17) #10
  call void @llvm.lifetime.end.p0(i64 4, ptr %16) #10
  call void @llvm.lifetime.end.p0(i64 8, ptr %15) #10
  call void @llvm.lifetime.end.p0(i64 8, ptr %14) #10
  %95 = load i32, ptr %7, align 4
  ret i32 %95
}