; Function Attrs: nounwind uwtable
define internal range(i32 -2147483648, 1) i32 @process_command(ptr noundef %0, ptr noundef %1, ptr noundef %2, ptr noundef %3, i32 noundef %4, i32 noundef %5) #1 {
  %7 = getelementptr inbounds nuw i8, ptr %0, i64 32
  %8 = load ptr, ptr %7, align 8, !tbaa !26
  %9 = load ptr, ptr %8, align 8, !tbaa !27
  %10 = getelementptr inbounds nuw i8, ptr %0, i64 72
  %11 = load ptr, ptr %10, align 8, !tbaa !4
  %12 = getelementptr inbounds nuw i8, ptr %11, i64 8
  %13 = load i32, ptr %12, align 8, !tbaa !29
  %14 = getelementptr inbounds nuw i8, ptr %11, i64 12
  %15 = load i32, ptr %14, align 4, !tbaa !30
  %16 = getelementptr inbounds nuw i8, ptr %11, i64 16
  %17 = load i32, ptr %16, align 8, !tbaa !31
  %18 = getelementptr inbounds nuw i8, ptr %11, i64 20
  %19 = load i32, ptr %18, align 4, !tbaa !32
  %20 = getelementptr inbounds nuw i8, ptr %11, i64 24
  %21 = load i32, ptr %20, align 8, !tbaa !33
  %22 = getelementptr inbounds nuw i8, ptr %11, i64 116
  %23 = load i32, ptr %22, align 4, !tbaa !34
  %24 = tail call i32 @ff_filter_process_command(ptr noundef %0, ptr noundef %1, ptr noundef %2, ptr noundef %3, i32 noundef %4, i32 noundef %5) #10
  %25 = icmp slt i32 %24, 0
  br i1 %25, label %32, label %26

26:                                               ; preds = %6
  %27 = tail call i32 @init(ptr noundef nonnull %0) #11
  %28 = icmp slt i32 %27, 0
  br i1 %28, label %.thread, label %29

29:                                               ; preds = %26
  %30 = tail call i32 @config_input(ptr noundef %9)
  %31 = icmp slt i32 %30, 0
  br i1 %31, label %.thread, label %32

.thread:                                          ; preds = %26, %29
  %.037 = phi i32 [ %30, %29 ], [ %27, %26 ]
  store i32 %13, ptr %12, align 8, !tbaa !29
  store i32 %15, ptr %14, align 4, !tbaa !30
  store i32 %17, ptr %16, align 8, !tbaa !31
  store i32 %19, ptr %18, align 4, !tbaa !32
  store i32 %21, ptr %20, align 8, !tbaa !33
  store i32 %23, ptr %22, align 4, !tbaa !34
  br label %32

32:                                               ; preds = %29, %.thread, %6
  %.033 = phi i32 [ %24, %6 ], [ %.037, %.thread ], [ 0, %29 ]
  ret i32 %.033
}